target datalayout = "e-m:e-p270:32:32-p271:32:32-p272:64:64-i64:64-i128:128-f80:128-n8:16:32:64-S128"
target triple = "x86_64-pc-linux-gnu"

%struct.FilterStateData = type { ptr, ptr, ptr, i32, %struct.StringInfoData }
%struct.StringInfoData = type { ptr, i32, i32, i32 }

@stdin = external global ptr, align 8
@.str.3 = private unnamed_addr constant [37 x i8] c"could not close filter file \22%s\22: %m\00", align 1

; Function Attrs: nounwind uwtable
define dso_local void @filter_free(ptr noundef %0) #0 {
  %2 = alloca ptr, align 8
  store ptr %0, ptr %2, align 8
  %3 = load ptr, ptr %2, align 8
  %4 = icmp ne ptr %3, null
  br i1 %4, label %6, label %5

5:                                                ; preds = %1
  br label %37

6:                                                ; preds = %1
  %7 = load ptr, ptr %2, align 8
  %8 = getelementptr inbounds nuw %struct.FilterStateData, ptr %7, i32 0, i32 4
  %9 = getelementptr inbounds nuw %struct.StringInfoData, ptr %8, i32 0, i32 0
  %10 = load ptr, ptr %9, align 8
  call void @free(ptr noundef %10) #8
  %11 = load ptr, ptr %2, align 8
  %12 = getelementptr inbounds nuw %struct.FilterStateData, ptr %11, i32 0, i32 4
  %13 = getelementptr inbounds nuw %struct.StringInfoData, ptr %12, i32 0, i32 0
  store ptr null, ptr %13, align 8
  %14 = load ptr, ptr %2, align 8
  %15 = getelementptr inbounds nuw %struct.FilterStateData, ptr %14, i32 0, i32 0
  %16 = load ptr, ptr %15, align 8
  %17 = icmp ne ptr %16, null
  br i1 %17, label %18, label %37

18:                                               ; preds = %6
  %19 = load ptr, ptr %2, align 8
  %20 = getelementptr inbounds nuw %struct.FilterStateData, ptr %19, i32 0, i32 0
  %21 = load ptr, ptr %20, align 8
  %22 = load ptr, ptr @stdin, align 8
  %23 = icmp ne ptr %21, %22
  br i1 %23, label %24, label %37

24:                                               ; preds = %18
  %25 = load ptr, ptr %2, align 8
  %26 = getelementptr inbounds nuw %struct.FilterStateData, ptr %25, i32 0, i32 0
  %27 = load ptr, ptr %26, align 8
  %28 = call i32 @fclose(ptr noundef %27)
  %29 = icmp ne i32 %28, 0
  br i1 %29, label %30, label %34

30:                                               ; preds = %24
  %31 = load ptr, ptr %2, align 8
  %32 = getelementptr inbounds nuw %struct.FilterStateData, ptr %31, i32 0, i32 1
  %33 = load ptr, ptr %32, align 8
  call void (i32, i32, ptr, ...) @pg_log_generic(i32 noundef 4, i32 noundef 0, ptr noundef @.str.3, ptr noundef %33)
  br label %34

34:                                               ; preds = %30, %24
  %35 = load ptr, ptr %2, align 8
  %36 = getelementptr inbounds nuw %struct.FilterStateData, ptr %35, i32 0, i32 0
  store ptr null, ptr %36, align 8
  br label %37

37:                                               ; preds = %5, %34, %18, %6
  ret void
}