; Function Attrs: nounwind uwtable
define dso_local void @filter_free(ptr noundef captures(address_is_null) %0) local_unnamed_addr #0 {
  %.not = icmp eq ptr %0, null
  br i1 %.not, label %13, label %2

2:                                                ; preds = %1
  %3 = getelementptr inbounds nuw i8, ptr %0, i64 32
  %4 = load ptr, ptr %3, align 8
  tail call void @free(ptr noundef %4) #9
  store ptr null, ptr %3, align 8
  %5 = load ptr, ptr %0, align 8
  %.not9 = icmp eq ptr %5, null
  %6 = load ptr, ptr @stdin, align 8
  %.not10 = icmp eq ptr %5, %6
  %or.cond = select i1 %.not9, i1 true, i1 %.not10
  br i1 %or.cond, label %13, label %7

7:                                                ; preds = %2
  %8 = tail call i32 @fclose(ptr noundef nonnull %5)
  %.not11 = icmp eq i32 %8, 0
  br i1 %.not11, label %12, label %9

9:                                                ; preds = %7
  %10 = getelementptr inbounds nuw i8, ptr %0, i64 8
  %11 = load ptr, ptr %10, align 8
  tail call void (i32, i32, ptr, ...) @pg_log_generic(i32 noundef 4, i32 noundef 0, ptr noundef nonnull @.str.3, ptr noundef %11) #9
  br label %12

12:                                               ; preds = %9, %7
  store ptr null, ptr %0, align 8
  br label %13

13:                                               ; preds = %1, %12, %2
  ret void
}